	.file	"main.c"
	.text
.Ltext0:
	.file 0 "/home/justin/projects/gt-lib" "main.c"
	.globl	gt_arr
	.bss
	.align 32
	.type	gt_arr, @object
	.size	gt_arr, 320
gt_arr:
	.zero	320
	.globl	cur_gt
	.align 8
	.type	cur_gt, @object
	.size	cur_gt, 8
cur_gt:
	.zero	8
	.section	.rodata
.LC0:
	.string	"------------"
.LC1:
	.string	"id: %d\n"
.LC2:
	.string	"state: %d\n"
	.text
	.globl	print_gt_table
	.type	print_gt_table, @function
print_gt_table:
.LFB6:
	.file 1 "main.c"
	.loc 1 41 23
	.cfi_startproc
	endbr64
	pushq	%rbp
	.cfi_def_cfa_offset 16
	.cfi_offset 6, -16
	movq	%rsp, %rbp
	.cfi_def_cfa_register 6
	pushq	%rbx
	subq	$104, %rsp
	.cfi_offset 3, -24
.LBB2:
	.loc 1 42 14
	movl	$0, -100(%rbp)
	.loc 1 42 5
	jmp	.L2
.L3:
.LBB3:
	.loc 1 43 12 discriminator 3
	movl	-100(%rbp), %eax
	movslq	%eax, %rdx
	movq	%rdx, %rax
	salq	$2, %rax
	addq	%rdx, %rax
	salq	$4, %rax
	movq	%rax, %rdx
	leaq	gt_arr(%rip), %rax
	movq	(%rdx,%rax), %rcx
	movq	8(%rdx,%rax), %rbx
	movq	%rcx, -96(%rbp)
	movq	%rbx, -88(%rbp)
	movq	16(%rdx,%rax), %rcx
	movq	24(%rdx,%rax), %rbx
	movq	%rcx, -80(%rbp)
	movq	%rbx, -72(%rbp)
	movq	32(%rdx,%rax), %rcx
	movq	40(%rdx,%rax), %rbx
	movq	%rcx, -64(%rbp)
	movq	%rbx, -56(%rbp)
	movq	48(%rdx,%rax), %rcx
	movq	56(%rdx,%rax), %rbx
	movq	%rcx, -48(%rbp)
	movq	%rbx, -40(%rbp)
	leaq	64(%rdx,%rax), %rdx
	movq	(%rdx), %rax
	movq	8(%rdx), %rdx
	movq	%rax, -32(%rbp)
	movq	%rdx, -24(%rbp)
	.loc 1 44 9 discriminator 3
	leaq	.LC0(%rip), %rax
	movq	%rax, %rdi
	call	puts@PLT
	.loc 1 45 9 discriminator 3
	movl	-96(%rbp), %eax
	movl	%eax, %esi
	leaq	.LC1(%rip), %rax
	movq	%rax, %rdi
	movl	$0, %eax
	call	printf@PLT
	.loc 1 46 33 discriminator 3
	movl	-24(%rbp), %eax
	.loc 1 46 9 discriminator 3
	movl	%eax, %esi
	leaq	.LC2(%rip), %rax
	movq	%rax, %rdi
	movl	$0, %eax
	call	printf@PLT
	.loc 1 47 9 discriminator 3
	pushq	-48(%rbp)
	pushq	-56(%rbp)
	pushq	-64(%rbp)
	pushq	-72(%rbp)
	pushq	-80(%rbp)
	pushq	-88(%rbp)
	call	dump_regs
	addq	$48, %rsp
.LBE3:
	.loc 1 42 33 discriminator 3
	addl	$1, -100(%rbp)
.L2:
	.loc 1 42 22 discriminator 1
	cmpl	$3, -100(%rbp)
	jle	.L3
.LBE2:
	.loc 1 49 1
	nop
	nop
	movq	-8(%rbp), %rbx
	leave
	.cfi_def_cfa 7, 8
	ret
	.cfi_endproc
.LFE6:
	.size	print_gt_table, .-print_gt_table
	.section	.rodata
.LC3:
	.string	"in gt_return"
.LC4:
	.string	"no more threads to run"
	.text
	.globl	gt_return
	.type	gt_return, @function
gt_return:
.LFB7:
	.loc 1 51 17
	.cfi_startproc
	endbr64
	pushq	%rbp
	.cfi_def_cfa_offset 16
	.cfi_offset 6, -16
	movq	%rsp, %rbp
	.cfi_def_cfa_register 6
	.loc 1 53 5
	leaq	.LC3(%rip), %rax
	movq	%rax, %rdi
	call	puts@PLT
	.loc 1 55 11
	movq	cur_gt(%rip), %rax
	.loc 1 55 19
	movl	$0, 72(%rax)
	.loc 1 56 10
	nop
.L5:
	.loc 1 56 11 discriminator 1
	movl	$0, %eax
	call	gt_yield
	testb	%al, %al
	jne	.L5
	.loc 1 59 5
	leaq	.LC4(%rip), %rax
	movq	%rax, %rdi
	call	puts@PLT
	.loc 1 61 5
	movl	$1, %edi
	call	exit@PLT
	.cfi_endproc
.LFE7:
	.size	gt_return, .-gt_return
	.section	.rodata
.LC5:
	.string	"enter yield"
.LC6:
	.string	"print innocent variable: %d\n"
.LC7:
	.string	"cur_gt: %d, %d\n"
.LC8:
	.string	"yeilding thread: %d\n"
.LC9:
	.string	"iter"
.LC10:
	.string	"rdy_gt: %d, %d\n"
.LC11:
	.string	"yeilding from :%d to %d\n"
	.text
	.globl	gt_yield
	.type	gt_yield, @function
gt_yield:
.LFB8:
	.loc 1 65 17
	.cfi_startproc
	endbr64
	pushq	%rbp
	.cfi_def_cfa_offset 16
	.cfi_offset 6, -16
	movq	%rsp, %rbp
	.cfi_def_cfa_register 6
	subq	$32, %rsp
	.loc 1 67 9
	movl	$5, -28(%rbp)
	.loc 1 68 5
	leaq	.LC5(%rip), %rax
	movq	%rax, %rdi
	call	puts@PLT
	.loc 1 69 5
	movl	-28(%rbp), %eax
	movl	%eax, %esi
	leaq	.LC6(%rip), %rax
	movq	%rax, %rdi
	movl	$0, %eax
	call	printf@PLT
	.loc 1 70 53
	movq	cur_gt(%rip), %rax
	movl	72(%rax), %eax
	.loc 1 70 5
	cmpl	$1, %eax
	sete	%al
	movzbl	%al, %edx
	.loc 1 70 38
	movq	cur_gt(%rip), %rax
	movl	72(%rax), %eax
	.loc 1 70 5
	movl	%eax, %esi
	leaq	.LC7(%rip), %rax
	movq	%rax, %rdi
	movl	$0, %eax
	call	printf@PLT
	.loc 1 71 43
	movq	cur_gt(%rip), %rax
	.loc 1 71 5
	movl	(%rax), %eax
	movl	%eax, %esi
	leaq	.LC8(%rip), %rax
	movq	%rax, %rdi
	movl	$0, %eax
	call	printf@PLT
	.loc 1 73 9
	movq	cur_gt(%rip), %rax
	movq	%rax, -24(%rbp)
	.loc 1 75 11
	jmp	.L7
.L10:
	.loc 1 76 9
	leaq	.LC9(%rip), %rax
	movq	%rax, %rdi
	call	puts@PLT
	.loc 1 77 19
	movq	-24(%rbp), %rax
	leaq	80(%rax), %rdx
	movq	%rdx, -24(%rbp)
	.loc 1 77 12
	leaq	320+gt_arr(%rip), %rdx
	cmpq	%rdx, %rax
	jne	.L8
	.loc 1 78 20
	leaq	gt_arr(%rip), %rax
	movq	%rax, -24(%rbp)
.L8:
	.loc 1 79 20
	movq	cur_gt(%rip), %rax
	.loc 1 79 12
	cmpq	%rax, -24(%rbp)
	jne	.L7
	.loc 1 80 20
	movl	$0, %eax
	jmp	.L9
.L7:
	.loc 1 75 18
	movq	-24(%rbp), %rax
	movl	72(%rax), %eax
	.loc 1 75 26
	cmpl	$1, %eax
	jne	.L10
	.loc 1 83 50
	movq	cur_gt(%rip), %rax
	movl	72(%rax), %edx
	.loc 1 83 38
	movq	cur_gt(%rip), %rax
	.loc 1 83 5
	movl	(%rax), %eax
	movl	%eax, %esi
	leaq	.LC7(%rip), %rax
	movq	%rax, %rdi
	movl	$0, %eax
	call	printf@PLT
	.loc 1 84 50
	movq	-24(%rbp), %rax
	movl	72(%rax), %edx
	.loc 1 84 5
	movq	-24(%rbp), %rax
	movl	(%rax), %eax
	movl	%eax, %esi
	leaq	.LC10(%rip), %rax
	movq	%rax, %rdi
	movl	$0, %eax
	call	printf@PLT
	.loc 1 86 15
	movq	-24(%rbp), %rax
	movl	72(%rax), %eax
	.loc 1 86 8
	cmpl	$1, %eax
	jne	.L11
.LBB4:
	.loc 1 88 9
	movq	-24(%rbp), %rax
	movl	(%rax), %edx
	.loc 1 88 51
	movq	cur_gt(%rip), %rax
	.loc 1 88 9
	movl	(%rax), %eax
	movl	%eax, %esi
	leaq	.LC11(%rip), %rax
	movq	%rax, %rdi
	movl	$0, %eax
	call	printf@PLT
	.loc 1 92 23
	movq	-24(%rbp), %rax
	movl	$2, 72(%rax)
	.loc 1 94 22
	movq	cur_gt(%rip), %rax
	.loc 1 94 13
	addq	$8, %rax
	movq	%rax, -16(%rbp)
	.loc 1 95 13
	movq	-24(%rbp), %rax
	addq	$8, %rax
	movq	%rax, -8(%rbp)
	.loc 1 96 16
	movq	-24(%rbp), %rax
	movq	%rax, cur_gt(%rip)
	.loc 1 98 9
	movq	-8(%rbp), %rdx
	movq	-16(%rbp), %rax
	movq	%rdx, %rsi
	movq	%rax, %rdi
	call	gt_switch@PLT
	.loc 1 100 16
	movl	$1, %eax
	jmp	.L9
.L11:
.LBE4:
	.loc 1 102 12
	movl	$0, %eax
.L9:
	.loc 1 103 1
	leave
	.cfi_def_cfa 7, 8
	ret
	.cfi_endproc
.LFE8:
	.size	gt_yield, .-gt_yield
	.globl	gt_init
	.type	gt_init, @function
gt_init:
.LFB9:
	.loc 1 105 16
	.cfi_startproc
	endbr64
	pushq	%rbp
	.cfi_def_cfa_offset 16
	.cfi_offset 6, -16
	movq	%rsp, %rbp
	.cfi_def_cfa_register 6
	.loc 1 106 12
	leaq	gt_arr(%rip), %rax
	movq	%rax, cur_gt(%rip)
	.loc 1 107 11
	movq	cur_gt(%rip), %rax
	.loc 1 107 16
	movl	$1, (%rax)
	.loc 1 108 11
	movq	cur_gt(%rip), %rax
	.loc 1 108 19
	movl	$2, 72(%rax)
	.loc 1 109 1
	nop
	popq	%rbp
	.cfi_def_cfa 7, 8
	ret
	.cfi_endproc
.LFE9:
	.size	gt_init, .-gt_init
	.globl	gt_start
	.type	gt_start, @function
gt_start:
.LFB10:
	.loc 1 111 37
	.cfi_startproc
	endbr64
	pushq	%rbp
	.cfi_def_cfa_offset 16
	.cfi_offset 6, -16
	movq	%rsp, %rbp
	.cfi_def_cfa_register 6
	pushq	%rbx
	subq	$120, %rsp
	.cfi_offset 3, -24
	movq	%rdi, -120(%rbp)
	movq	%rsi, -128(%rbp)
	.loc 1 116 20
	movl	$8192, %edi
	call	malloc@PLT
	.loc 1 116 18
	movq	%rax, -40(%rbp)
	.loc 1 117 24
	movq	-40(%rbp), %rax
	.loc 1 117 17
	addq	$8184, %rax
	.loc 1 117 49
	leaq	gt_return(%rip), %rdx
	.loc 1 117 47
	movq	%rdx, (%rax)
	.loc 1 118 24
	movq	-40(%rbp), %rax
	.loc 1 118 17
	leaq	8176(%rax), %rdx
	.loc 1 118 50
	movq	-120(%rbp), %rax
	.loc 1 118 48
	movq	%rax, (%rdx)
	.loc 1 120 39
	movq	-40(%rbp), %rax
	.loc 1 120 32
	addq	$8176, %rax
	.loc 1 120 20
	movq	%rax, -88(%rbp)
	.loc 1 121 18
	movl	$1, -24(%rbp)
	.loc 1 122 19
	movl	id.0(%rip), %eax
	leal	1(%rax), %edx
	movl	%edx, id.0(%rip)
	.loc 1 122 15
	movl	%eax, -96(%rbp)
	.loc 1 125 9
	movq	cur_gt(%rip), %rax
	movq	%rax, -104(%rbp)
	.loc 1 126 11
	jmp	.L14
.L17:
	.loc 1 127 12
	addq	$80, -104(%rbp)
	leaq	320+gt_arr(%rip), %rax
	cmpq	%rax, -104(%rbp)
	jne	.L15
	.loc 1 128 21
	leaq	gt_arr(%rip), %rax
	movq	%rax, -104(%rbp)
.L15:
	.loc 1 129 21
	movq	cur_gt(%rip), %rax
	.loc 1 129 12
	cmpq	%rax, -104(%rbp)
	jne	.L14
	.loc 1 130 20
	movl	$-1, %eax
	jmp	.L18
.L14:
	.loc 1 126 19
	movq	-104(%rbp), %rax
	movl	72(%rax), %eax
	.loc 1 126 27
	testl	%eax, %eax
	jne	.L17
	.loc 1 133 14
	movq	-104(%rbp), %rax
	movq	-96(%rbp), %rcx
	movq	-88(%rbp), %rbx
	movq	%rcx, (%rax)
	movq	%rbx, 8(%rax)
	movq	-80(%rbp), %rcx
	movq	-72(%rbp), %rbx
	movq	%rcx, 16(%rax)
	movq	%rbx, 24(%rax)
	movq	-64(%rbp), %rcx
	movq	-56(%rbp), %rbx
	movq	%rcx, 32(%rax)
	movq	%rbx, 40(%rax)
	movq	-48(%rbp), %rcx
	movq	-40(%rbp), %rbx
	movq	%rcx, 48(%rax)
	movq	%rbx, 56(%rax)
	movq	-32(%rbp), %rcx
	movq	-24(%rbp), %rbx
	movq	%rcx, 64(%rax)
	movq	%rbx, 72(%rax)
	.loc 1 135 12
	movl	$0, %eax
.L18:
	.loc 1 136 1 discriminator 1
	movq	-8(%rbp), %rbx
	leave
	.cfi_def_cfa 7, 8
	ret
	.cfi_endproc
.LFE10:
	.size	gt_start, .-gt_start
	.section	.rodata
.LC12:
	.string	"gt switched to me!"
	.text
	.globl	gt_function
	.type	gt_function, @function
gt_function:
.LFB11:
	.loc 1 138 30
	.cfi_startproc
	endbr64
	pushq	%rbp
	.cfi_def_cfa_offset 16
	.cfi_offset 6, -16
	movq	%rsp, %rbp
	.cfi_def_cfa_register 6
	subq	$16, %rsp
	movq	%rdi, -8(%rbp)
	.loc 1 139 5
	leaq	.LC12(%rip), %rax
	movq	%rax, %rdi
	call	puts@PLT
	.loc 1 140 5
	movl	$1, %edi
	call	sleep@PLT
	.loc 1 141 12
	movl	$0, %eax
	.loc 1 142 1
	leave
	.cfi_def_cfa 7, 8
	ret
	.cfi_endproc
.LFE11:
	.size	gt_function, .-gt_function
	.section	.rodata
.LC13:
	.string	"returned to main thread"
	.text
	.globl	main
	.type	main, @function
main:
.LFB12:
	.loc 1 144 12
	.cfi_startproc
	endbr64
	pushq	%rbp
	.cfi_def_cfa_offset 16
	.cfi_offset 6, -16
	movq	%rsp, %rbp
	.cfi_def_cfa_register 6
	subq	$16, %rsp
	.loc 1 144 12
	movq	%fs:40, %rax
	movq	%rax, -8(%rbp)
	xorl	%eax, %eax
	.loc 1 145 5
	movl	$0, %eax
	call	gt_init
	.loc 1 147 9
	movl	$6, -12(%rbp)
	.loc 1 149 5
	leaq	-12(%rbp), %rax
	movq	%rax, %rsi
	leaq	gt_function(%rip), %rax
	movq	%rax, %rdi
	call	gt_start
	.loc 1 153 5
	movl	$0, %eax
	call	print_gt_table
	.loc 1 154 5
	movl	$0, %eax
	call	gt_return
	.loc 1 156 5
	leaq	.LC13(%rip), %rax
	movq	%rax, %rdi
	call	puts@PLT
	movl	$0, %eax
	.loc 1 157 1
	movq	-8(%rbp), %rdx
	subq	%fs:40, %rdx
	je	.L23
	call	__stack_chk_fail@PLT
.L23:
	leave
	.cfi_def_cfa 7, 8
	ret
	.cfi_endproc
.LFE12:
	.size	main, .-main
	.section	.rodata
.LC14:
	.string	"rsp: 0x%lx\n"
.LC15:
	.string	"rbp: 0x%lx\n"
.LC16:
	.string	"r12: 0x%lx\n"
.LC17:
	.string	"r14: 0x%lx\n"
.LC18:
	.string	"r15: 0x%lx\n"
.LC19:
	.string	"r16: 0x%lx\n"
	.text
	.globl	dump_regs
	.type	dump_regs, @function
dump_regs:
.LFB13:
	.loc 1 159 27
	.cfi_startproc
	endbr64
	pushq	%rbp
	.cfi_def_cfa_offset 16
	.cfi_offset 6, -16
	movq	%rsp, %rbp
	.cfi_def_cfa_register 6
	.loc 1 160 5
	movq	16(%rbp), %rax
	movq	%rax, %rsi
	leaq	.LC14(%rip), %rax
	movq	%rax, %rdi
	movl	$0, %eax
	call	printf@PLT
	.loc 1 161 5
	movq	24(%rbp), %rax
	movq	%rax, %rsi
	leaq	.LC15(%rip), %rax
	movq	%rax, %rdi
	movl	$0, %eax
	call	printf@PLT
	.loc 1 162 5
	movq	32(%rbp), %rax
	movq	%rax, %rsi
	leaq	.LC16(%rip), %rax
	movq	%rax, %rdi
	movl	$0, %eax
	call	printf@PLT
	.loc 1 163 5
	movq	40(%rbp), %rax
	movq	%rax, %rsi
	leaq	.LC17(%rip), %rax
	movq	%rax, %rdi
	movl	$0, %eax
	call	printf@PLT
	.loc 1 164 5
	movq	48(%rbp), %rax
	movq	%rax, %rsi
	leaq	.LC18(%rip), %rax
	movq	%rax, %rdi
	movl	$0, %eax
	call	printf@PLT
	.loc 1 165 5
	movq	56(%rbp), %rax
	movq	%rax, %rsi
	leaq	.LC19(%rip), %rax
	movq	%rax, %rdi
	movl	$0, %eax
	call	printf@PLT
	.loc 1 166 1
	nop
	popq	%rbp
	.cfi_def_cfa 7, 8
	ret
	.cfi_endproc
.LFE13:
	.size	dump_regs, .-dump_regs
	.data
	.align 4
	.type	id.0, @object
	.size	id.0, 4
id.0:
	.long	2
	.text
.Letext0:
	.file 2 "/usr/include/x86_64-linux-gnu/bits/types.h"
	.file 3 "/usr/lib/gcc/x86_64-linux-gnu/11/include/stddef.h"
	.file 4 "/usr/include/x86_64-linux-gnu/bits/stdint-uintn.h"
	.file 5 "/usr/include/unistd.h"
	.file 6 "/usr/include/stdlib.h"
	.file 7 "/usr/include/stdio.h"
	.section	.note.GNU-stack,"",@progbits
	.section	.note.gnu.property,"a"
	.align 8
	.long	1f - 0f
	.long	4f - 1f
	.long	5
0:
	.string	"GNU"
1:
	.align 8
	.long	0xc0000002
	.long	3f - 2f
2:
	.long	0x3
3:
	.align 8
4:
